target datalayout = "e-m:e-p270:32:32-p271:32:32-p272:64:64-i64:64-i128:128-f80:128-n8:16:32:64-S128"
target triple = "x86_64-pc-linux-gnu"

%struct.pmix_value = type { i16, %union.anon }
%union.anon = type { %struct.pmix_envar_t }
%struct.pmix_envar_t = type { ptr, ptr, i8 }
%struct.pmix_byte_object = type { ptr, i64 }

; Function Attrs: nounwind uwtable
define i32 @pmix12_bfrop_value_unload(ptr noundef %0, ptr noundef %1, ptr noundef %2) #0 {
  %4 = alloca ptr, align 8
  %5 = alloca ptr, align 8
  %6 = alloca ptr, align 8
  %7 = alloca i32, align 4
  store ptr %0, ptr %4, align 8, !tbaa !31
  store ptr %1, ptr %5, align 8, !tbaa !3
  store ptr %2, ptr %6, align 8, !tbaa !42
  call void @llvm.lifetime.start.p0(i64 4, ptr %7) #13
  store i32 0, ptr %7, align 4, !tbaa !20
  %8 = load ptr, ptr %5, align 8, !tbaa !3
  %9 = icmp eq ptr null, %8
  br i1 %9, label %26, label %10

10:                                               ; preds = %3
  %11 = load ptr, ptr %5, align 8, !tbaa !3
  %12 = load ptr, ptr %11, align 8, !tbaa !3
  %13 = icmp eq ptr null, %12
  br i1 %13, label %14, label %27

14:                                               ; preds = %10
  %15 = load ptr, ptr %4, align 8, !tbaa !31
  %16 = getelementptr inbounds nuw %struct.pmix_value, ptr %15, i32 0, i32 0
  %17 = load i16, ptr %16, align 8, !tbaa !34
  %18 = zext i16 %17 to i32
  %19 = icmp ne i32 3, %18
  br i1 %19, label %20, label %27

20:                                               ; preds = %14
  %21 = load ptr, ptr %4, align 8, !tbaa !31
  %22 = getelementptr inbounds nuw %struct.pmix_value, ptr %21, i32 0, i32 0
  %23 = load i16, ptr %22, align 8, !tbaa !34
  %24 = zext i16 %23 to i32
  %25 = icmp ne i32 27, %24
  br i1 %25, label %26, label %27

26:                                               ; preds = %20, %3
  store i32 -27, ptr %7, align 4, !tbaa !20
  br label %181

27:                                               ; preds = %20, %14, %10
  %28 = load ptr, ptr %4, align 8, !tbaa !31
  %29 = getelementptr inbounds nuw %struct.pmix_value, ptr %28, i32 0, i32 0
  %30 = load i16, ptr %29, align 8, !tbaa !34
  %31 = zext i16 %30 to i32
  switch i32 %31, label %180 [
    i32 0, label %32
    i32 1, label %33
    i32 2, label %39
    i32 3, label %45
    i32 4, label %62
    i32 5, label %68
    i32 6, label %74
    i32 7, label %80
    i32 8, label %86
    i32 9, label %92
    i32 10, label %98
    i32 11, label %104
    i32 12, label %110
    i32 13, label %116
    i32 14, label %122
    i32 15, label %128
    i32 16, label %134
    i32 17, label %140
    i32 18, label %146
    i32 27, label %152
    i32 19, label %179
    i32 21, label %179
    i32 44, label %179
    i32 23, label %179
    i32 24, label %179
    i32 25, label %179
    i32 26, label %179
    i32 28, label %179
    i32 29, label %179
    i32 30, label %179
    i32 22, label %179
  ]

32:                                               ; preds = %27
  store i32 -16, ptr %7, align 4, !tbaa !20
  br label %180

33:                                               ; preds = %27
  %34 = load ptr, ptr %5, align 8, !tbaa !3
  %35 = load ptr, ptr %34, align 8, !tbaa !3
  %36 = load ptr, ptr %4, align 8, !tbaa !31
  %37 = getelementptr inbounds nuw %struct.pmix_value, ptr %36, i32 0, i32 1
  call void @llvm.memcpy.p0.p0.i64(ptr align 1 %35, ptr align 8 %37, i64 1, i1 false)
  %38 = load ptr, ptr %6, align 8, !tbaa !42
  store i64 1, ptr %38, align 8, !tbaa !43
  br label %180

39:                                               ; preds = %27
  %40 = load ptr, ptr %5, align 8, !tbaa !3
  %41 = load ptr, ptr %40, align 8, !tbaa !3
  %42 = load ptr, ptr %4, align 8, !tbaa !31
  %43 = getelementptr inbounds nuw %struct.pmix_value, ptr %42, i32 0, i32 1
  call void @llvm.memcpy.p0.p0.i64(ptr align 1 %41, ptr align 8 %43, i64 1, i1 false)
  %44 = load ptr, ptr %6, align 8, !tbaa !42
  store i64 1, ptr %44, align 8, !tbaa !43
  br label %180

45:                                               ; preds = %27
  %46 = load ptr, ptr %4, align 8, !tbaa !31
  %47 = getelementptr inbounds nuw %struct.pmix_value, ptr %46, i32 0, i32 1
  %48 = load ptr, ptr %47, align 8, !tbaa !36
  %49 = icmp ne ptr null, %48
  br i1 %49, label %50, label %61

50:                                               ; preds = %45
  %51 = load ptr, ptr %4, align 8, !tbaa !31
  %52 = getelementptr inbounds nuw %struct.pmix_value, ptr %51, i32 0, i32 1
  %53 = load ptr, ptr %52, align 8, !tbaa !36
  %54 = call noalias ptr @strdup(ptr noundef %53) #13
  %55 = load ptr, ptr %5, align 8, !tbaa !3
  store ptr %54, ptr %55, align 8, !tbaa !3
  %56 = load ptr, ptr %4, align 8, !tbaa !31
  %57 = getelementptr inbounds nuw %struct.pmix_value, ptr %56, i32 0, i32 1
  %58 = load ptr, ptr %57, align 8, !tbaa !36
  %59 = call i64 @strlen(ptr noundef %58) #14
  %60 = load ptr, ptr %6, align 8, !tbaa !42
  store i64 %59, ptr %60, align 8, !tbaa !43
  br label %61

61:                                               ; preds = %50, %45
  br label %180

62:                                               ; preds = %27
  %63 = load ptr, ptr %5, align 8, !tbaa !3
  %64 = load ptr, ptr %63, align 8, !tbaa !3
  %65 = load ptr, ptr %4, align 8, !tbaa !31
  %66 = getelementptr inbounds nuw %struct.pmix_value, ptr %65, i32 0, i32 1
  call void @llvm.memcpy.p0.p0.i64(ptr align 1 %64, ptr align 8 %66, i64 8, i1 false)
  %67 = load ptr, ptr %6, align 8, !tbaa !42
  store i64 8, ptr %67, align 8, !tbaa !43
  br label %180

68:                                               ; preds = %27
  %69 = load ptr, ptr %5, align 8, !tbaa !3
  %70 = load ptr, ptr %69, align 8, !tbaa !3
  %71 = load ptr, ptr %4, align 8, !tbaa !31
  %72 = getelementptr inbounds nuw %struct.pmix_value, ptr %71, i32 0, i32 1
  call void @llvm.memcpy.p0.p0.i64(ptr align 1 %70, ptr align 8 %72, i64 4, i1 false)
  %73 = load ptr, ptr %6, align 8, !tbaa !42
  store i64 4, ptr %73, align 8, !tbaa !43
  br label %180

74:                                               ; preds = %27
  %75 = load ptr, ptr %5, align 8, !tbaa !3
  %76 = load ptr, ptr %75, align 8, !tbaa !3
  %77 = load ptr, ptr %4, align 8, !tbaa !31
  %78 = getelementptr inbounds nuw %struct.pmix_value, ptr %77, i32 0, i32 1
  call void @llvm.memcpy.p0.p0.i64(ptr align 1 %76, ptr align 8 %78, i64 4, i1 false)
  %79 = load ptr, ptr %6, align 8, !tbaa !42
  store i64 4, ptr %79, align 8, !tbaa !43
  br label %180

80:                                               ; preds = %27
  %81 = load ptr, ptr %5, align 8, !tbaa !3
  %82 = load ptr, ptr %81, align 8, !tbaa !3
  %83 = load ptr, ptr %4, align 8, !tbaa !31
  %84 = getelementptr inbounds nuw %struct.pmix_value, ptr %83, i32 0, i32 1
  call void @llvm.memcpy.p0.p0.i64(ptr align 1 %82, ptr align 8 %84, i64 1, i1 false)
  %85 = load ptr, ptr %6, align 8, !tbaa !42
  store i64 1, ptr %85, align 8, !tbaa !43
  br label %180

86:                                               ; preds = %27
  %87 = load ptr, ptr %5, align 8, !tbaa !3
  %88 = load ptr, ptr %87, align 8, !tbaa !3
  %89 = load ptr, ptr %4, align 8, !tbaa !31
  %90 = getelementptr inbounds nuw %struct.pmix_value, ptr %89, i32 0, i32 1
  call void @llvm.memcpy.p0.p0.i64(ptr align 1 %88, ptr align 8 %90, i64 2, i1 false)
  %91 = load ptr, ptr %6, align 8, !tbaa !42
  store i64 2, ptr %91, align 8, !tbaa !43
  br label %180

92:                                               ; preds = %27
  %93 = load ptr, ptr %5, align 8, !tbaa !3
  %94 = load ptr, ptr %93, align 8, !tbaa !3
  %95 = load ptr, ptr %4, align 8, !tbaa !31
  %96 = getelementptr inbounds nuw %struct.pmix_value, ptr %95, i32 0, i32 1
  call void @llvm.memcpy.p0.p0.i64(ptr align 1 %94, ptr align 8 %96, i64 4, i1 false)
  %97 = load ptr, ptr %6, align 8, !tbaa !42
  store i64 4, ptr %97, align 8, !tbaa !43
  br label %180

98:                                               ; preds = %27
  %99 = load ptr, ptr %5, align 8, !tbaa !3
  %100 = load ptr, ptr %99, align 8, !tbaa !3
  %101 = load ptr, ptr %4, align 8, !tbaa !31
  %102 = getelementptr inbounds nuw %struct.pmix_value, ptr %101, i32 0, i32 1
  call void @llvm.memcpy.p0.p0.i64(ptr align 1 %100, ptr align 8 %102, i64 8, i1 false)
  %103 = load ptr, ptr %6, align 8, !tbaa !42
  store i64 8, ptr %103, align 8, !tbaa !43
  br label %180

104:                                              ; preds = %27
  %105 = load ptr, ptr %5, align 8, !tbaa !3
  %106 = load ptr, ptr %105, align 8, !tbaa !3
  %107 = load ptr, ptr %4, align 8, !tbaa !31
  %108 = getelementptr inbounds nuw %struct.pmix_value, ptr %107, i32 0, i32 1
  call void @llvm.memcpy.p0.p0.i64(ptr align 1 %106, ptr align 8 %108, i64 4, i1 false)
  %109 = load ptr, ptr %6, align 8, !tbaa !42
  store i64 4, ptr %109, align 8, !tbaa !43
  br label %180

110:                                              ; preds = %27
  %111 = load ptr, ptr %5, align 8, !tbaa !3
  %112 = load ptr, ptr %111, align 8, !tbaa !3
  %113 = load ptr, ptr %4, align 8, !tbaa !31
  %114 = getelementptr inbounds nuw %struct.pmix_value, ptr %113, i32 0, i32 1
  call void @llvm.memcpy.p0.p0.i64(ptr align 1 %112, ptr align 8 %114, i64 1, i1 false)
  %115 = load ptr, ptr %6, align 8, !tbaa !42
  store i64 1, ptr %115, align 8, !tbaa !43
  br label %180

116:                                              ; preds = %27
  %117 = load ptr, ptr %5, align 8, !tbaa !3
  %118 = load ptr, ptr %117, align 8, !tbaa !3
  %119 = load ptr, ptr %4, align 8, !tbaa !31
  %120 = getelementptr inbounds nuw %struct.pmix_value, ptr %119, i32 0, i32 1
  call void @llvm.memcpy.p0.p0.i64(ptr align 1 %118, ptr align 8 %120, i64 2, i1 false)
  %121 = load ptr, ptr %6, align 8, !tbaa !42
  store i64 2, ptr %121, align 8, !tbaa !43
  br label %180

122:                                              ; preds = %27
  %123 = load ptr, ptr %5, align 8, !tbaa !3
  %124 = load ptr, ptr %123, align 8, !tbaa !3
  %125 = load ptr, ptr %4, align 8, !tbaa !31
  %126 = getelementptr inbounds nuw %struct.pmix_value, ptr %125, i32 0, i32 1
  call void @llvm.memcpy.p0.p0.i64(ptr align 1 %124, ptr align 8 %126, i64 4, i1 false)
  %127 = load ptr, ptr %6, align 8, !tbaa !42
  store i64 4, ptr %127, align 8, !tbaa !43
  br label %180

128:                                              ; preds = %27
  %129 = load ptr, ptr %5, align 8, !tbaa !3
  %130 = load ptr, ptr %129, align 8, !tbaa !3
  %131 = load ptr, ptr %4, align 8, !tbaa !31
  %132 = getelementptr inbounds nuw %struct.pmix_value, ptr %131, i32 0, i32 1
  call void @llvm.memcpy.p0.p0.i64(ptr align 1 %130, ptr align 8 %132, i64 8, i1 false)
  %133 = load ptr, ptr %6, align 8, !tbaa !42
  store i64 8, ptr %133, align 8, !tbaa !43
  br label %180

134:                                              ; preds = %27
  %135 = load ptr, ptr %5, align 8, !tbaa !3
  %136 = load ptr, ptr %135, align 8, !tbaa !3
  %137 = load ptr, ptr %4, align 8, !tbaa !31
  %138 = getelementptr inbounds nuw %struct.pmix_value, ptr %137, i32 0, i32 1
  call void @llvm.memcpy.p0.p0.i64(ptr align 1 %136, ptr align 8 %138, i64 4, i1 false)
  %139 = load ptr, ptr %6, align 8, !tbaa !42
  store i64 4, ptr %139, align 8, !tbaa !43
  br label %180

140:                                              ; preds = %27
  %141 = load ptr, ptr %5, align 8, !tbaa !3
  %142 = load ptr, ptr %141, align 8, !tbaa !3
  %143 = load ptr, ptr %4, align 8, !tbaa !31
  %144 = getelementptr inbounds nuw %struct.pmix_value, ptr %143, i32 0, i32 1
  call void @llvm.memcpy.p0.p0.i64(ptr align 1 %142, ptr align 8 %144, i64 8, i1 false)
  %145 = load ptr, ptr %6, align 8, !tbaa !42
  store i64 8, ptr %145, align 8, !tbaa !43
  br label %180

146:                                              ; preds = %27
  %147 = load ptr, ptr %5, align 8, !tbaa !3
  %148 = load ptr, ptr %147, align 8, !tbaa !3
  %149 = load ptr, ptr %4, align 8, !tbaa !31
  %150 = getelementptr inbounds nuw %struct.pmix_value, ptr %149, i32 0, i32 1
  call void @llvm.memcpy.p0.p0.i64(ptr align 1 %148, ptr align 8 %150, i64 16, i1 false)
  %151 = load ptr, ptr %6, align 8, !tbaa !42
  store i64 16, ptr %151, align 8, !tbaa !43
  br label %180

152:                                              ; preds = %27
  %153 = load ptr, ptr %4, align 8, !tbaa !31
  %154 = getelementptr inbounds nuw %struct.pmix_value, ptr %153, i32 0, i32 1
  %155 = getelementptr inbounds nuw %struct.pmix_byte_object, ptr %154, i32 0, i32 0
  %156 = load ptr, ptr %155, align 8, !tbaa !36
  %157 = icmp ne ptr null, %156
  br i1 %157, label %158, label %175

158:                                              ; preds = %152
  %159 = load ptr, ptr %4, align 8, !tbaa !31
  %160 = getelementptr inbounds nuw %struct.pmix_value, ptr %159, i32 0, i32 1
  %161 = getelementptr inbounds nuw %struct.pmix_byte_object, ptr %160, i32 0, i32 1
  %162 = load i64, ptr %161, align 8, !tbaa !36
  %163 = icmp ult i64 0, %162
  br i1 %163, label %164, label %175

164:                                              ; preds = %158
  %165 = load ptr, ptr %4, align 8, !tbaa !31
  %166 = getelementptr inbounds nuw %struct.pmix_value, ptr %165, i32 0, i32 1
  %167 = getelementptr inbounds nuw %struct.pmix_byte_object, ptr %166, i32 0, i32 0
  %168 = load ptr, ptr %167, align 8, !tbaa !36
  %169 = load ptr, ptr %5, align 8, !tbaa !3
  store ptr %168, ptr %169, align 8, !tbaa !3
  %170 = load ptr, ptr %4, align 8, !tbaa !31
  %171 = getelementptr inbounds nuw %struct.pmix_value, ptr %170, i32 0, i32 1
  %172 = getelementptr inbounds nuw %struct.pmix_byte_object, ptr %171, i32 0, i32 1
  %173 = load i64, ptr %172, align 8, !tbaa !36
  %174 = load ptr, ptr %6, align 8, !tbaa !42
  store i64 %173, ptr %174, align 8, !tbaa !43
  br label %178

175:                                              ; preds = %158, %152
  %176 = load ptr, ptr %5, align 8, !tbaa !3
  store ptr null, ptr %176, align 8, !tbaa !3
  %177 = load ptr, ptr %6, align 8, !tbaa !42
  store i64 0, ptr %177, align 8, !tbaa !43
  br label %178

178:                                              ; preds = %175, %164
  br label %180

179:                                              ; preds = %27, %27, %27, %27, %27, %27, %27, %27, %27, %27, %27
  store i32 -1, ptr %7, align 4, !tbaa !20
  br label %180

180:                                              ; preds = %27, %179, %178, %146, %140, %134, %128, %122, %116, %110, %104, %98, %92, %86, %80, %74, %68, %62, %61, %39, %33, %32
  br label %181

181:                                              ; preds = %180, %26
  %182 = load i32, ptr %7, align 4, !tbaa !20
  call void @llvm.lifetime.end.p0(i64 4, ptr %7) #13
  ret i32 %182
}