; Function Attrs: mustprogress nofree nounwind willreturn uwtable
define range(i32 -27, 1) i32 @pmix12_bfrop_value_unload(ptr noundef readonly captures(none) %0, ptr noundef captures(address_is_null) %1, ptr noundef writeonly captures(none) %2) #3 {
  %4 = icmp eq ptr %1, null
  br i1 %4, label %77, label %5

5:                                                ; preds = %3
  %6 = load ptr, ptr %1, align 8, !tbaa !19
  %7 = icmp eq ptr %6, null
  %8 = load i16, ptr %0, align 8, !tbaa !40
  br i1 %7, label %9, label %thread-pre-split

9:                                                ; preds = %5
  switch i16 %8, label %77 [
    i16 3, label %16
    i16 27, label %67
  ]

thread-pre-split:                                 ; preds = %5
  switch i16 %8, label %.fold.split [
    i16 0, label %77
    i16 1, label %10
    i16 2, label %13
    i16 3, label %16
    i16 4, label %23
    i16 5, label %26
    i16 6, label %29
    i16 7, label %32
    i16 8, label %35
    i16 9, label %38
    i16 10, label %41
    i16 11, label %44
    i16 12, label %47
    i16 13, label %50
    i16 14, label %53
    i16 15, label %56
    i16 16, label %59
    i16 17, label %62
    i16 18, label %65
    i16 27, label %67
    i16 19, label %76
    i16 21, label %76
    i16 44, label %76
    i16 23, label %76
    i16 24, label %76
    i16 25, label %76
    i16 26, label %76
    i16 28, label %76
    i16 29, label %76
    i16 30, label %76
    i16 22, label %76
  ]

10:                                               ; preds = %thread-pre-split
  %11 = getelementptr inbounds nuw i8, ptr %0, i64 8
  %12 = load i8, ptr %11, align 8
  store i8 %12, ptr %6, align 1
  store i64 1, ptr %2, align 8, !tbaa !45
  br label %77

13:                                               ; preds = %thread-pre-split
  %14 = getelementptr inbounds nuw i8, ptr %0, i64 8
  %15 = load i8, ptr %14, align 8
  store i8 %15, ptr %6, align 1
  store i64 1, ptr %2, align 8, !tbaa !45
  br label %77

16:                                               ; preds = %9, %thread-pre-split
  %17 = getelementptr inbounds nuw i8, ptr %0, i64 8
  %18 = load ptr, ptr %17, align 8, !tbaa !42
  %.not76 = icmp eq ptr %18, null
  br i1 %.not76, label %77, label %19

19:                                               ; preds = %16
  %20 = tail call noalias ptr @strdup(ptr noundef nonnull %18) #18
  store ptr %20, ptr %1, align 8, !tbaa !19
  %21 = load ptr, ptr %17, align 8, !tbaa !42
  %22 = tail call i64 @strlen(ptr noundef nonnull dereferenceable(1) %21) #22
  store i64 %22, ptr %2, align 8, !tbaa !45
  br label %77

23:                                               ; preds = %thread-pre-split
  %24 = getelementptr inbounds nuw i8, ptr %0, i64 8
  %25 = load i64, ptr %24, align 8
  store i64 %25, ptr %6, align 1
  store i64 8, ptr %2, align 8, !tbaa !45
  br label %77

26:                                               ; preds = %thread-pre-split
  %27 = getelementptr inbounds nuw i8, ptr %0, i64 8
  %28 = load i32, ptr %27, align 8
  store i32 %28, ptr %6, align 1
  store i64 4, ptr %2, align 8, !tbaa !45
  br label %77

29:                                               ; preds = %thread-pre-split
  %30 = getelementptr inbounds nuw i8, ptr %0, i64 8
  %31 = load i32, ptr %30, align 8
  store i32 %31, ptr %6, align 1
  store i64 4, ptr %2, align 8, !tbaa !45
  br label %77

32:                                               ; preds = %thread-pre-split
  %33 = getelementptr inbounds nuw i8, ptr %0, i64 8
  %34 = load i8, ptr %33, align 8
  store i8 %34, ptr %6, align 1
  store i64 1, ptr %2, align 8, !tbaa !45
  br label %77

35:                                               ; preds = %thread-pre-split
  %36 = getelementptr inbounds nuw i8, ptr %0, i64 8
  %37 = load i16, ptr %36, align 8
  store i16 %37, ptr %6, align 1
  store i64 2, ptr %2, align 8, !tbaa !45
  br label %77

38:                                               ; preds = %thread-pre-split
  %39 = getelementptr inbounds nuw i8, ptr %0, i64 8
  %40 = load i32, ptr %39, align 8
  store i32 %40, ptr %6, align 1
  store i64 4, ptr %2, align 8, !tbaa !45
  br label %77

41:                                               ; preds = %thread-pre-split
  %42 = getelementptr inbounds nuw i8, ptr %0, i64 8
  %43 = load i64, ptr %42, align 8
  store i64 %43, ptr %6, align 1
  store i64 8, ptr %2, align 8, !tbaa !45
  br label %77

44:                                               ; preds = %thread-pre-split
  %45 = getelementptr inbounds nuw i8, ptr %0, i64 8
  %46 = load i32, ptr %45, align 8
  store i32 %46, ptr %6, align 1
  store i64 4, ptr %2, align 8, !tbaa !45
  br label %77

47:                                               ; preds = %thread-pre-split
  %48 = getelementptr inbounds nuw i8, ptr %0, i64 8
  %49 = load i8, ptr %48, align 8
  store i8 %49, ptr %6, align 1
  store i64 1, ptr %2, align 8, !tbaa !45
  br label %77

50:                                               ; preds = %thread-pre-split
  %51 = getelementptr inbounds nuw i8, ptr %0, i64 8
  %52 = load i16, ptr %51, align 8
  store i16 %52, ptr %6, align 1
  store i64 2, ptr %2, align 8, !tbaa !45
  br label %77

53:                                               ; preds = %thread-pre-split
  %54 = getelementptr inbounds nuw i8, ptr %0, i64 8
  %55 = load i32, ptr %54, align 8
  store i32 %55, ptr %6, align 1
  store i64 4, ptr %2, align 8, !tbaa !45
  br label %77

56:                                               ; preds = %thread-pre-split
  %57 = getelementptr inbounds nuw i8, ptr %0, i64 8
  %58 = load i64, ptr %57, align 8
  store i64 %58, ptr %6, align 1
  store i64 8, ptr %2, align 8, !tbaa !45
  br label %77

59:                                               ; preds = %thread-pre-split
  %60 = getelementptr inbounds nuw i8, ptr %0, i64 8
  %61 = load i32, ptr %60, align 8
  store i32 %61, ptr %6, align 1
  store i64 4, ptr %2, align 8, !tbaa !45
  br label %77

62:                                               ; preds = %thread-pre-split
  %63 = getelementptr inbounds nuw i8, ptr %0, i64 8
  %64 = load i64, ptr %63, align 8
  store i64 %64, ptr %6, align 1
  store i64 8, ptr %2, align 8, !tbaa !45
  br label %77

65:                                               ; preds = %thread-pre-split
  %66 = getelementptr inbounds nuw i8, ptr %0, i64 8
  tail call void @llvm.memcpy.p0.p0.i64(ptr noundef nonnull align 1 dereferenceable(16) %6, ptr noundef nonnull align 8 dereferenceable(16) %66, i64 16, i1 false)
  store i64 16, ptr %2, align 8, !tbaa !45
  br label %77

67:                                               ; preds = %9, %thread-pre-split
  %68 = getelementptr inbounds nuw i8, ptr %0, i64 8
  %69 = load ptr, ptr %68, align 8, !tbaa !42
  %.not74 = icmp eq ptr %69, null
  br i1 %.not74, label %75, label %70

70:                                               ; preds = %67
  %71 = getelementptr inbounds nuw i8, ptr %0, i64 16
  %72 = load i64, ptr %71, align 8, !tbaa !42
  %.not75 = icmp eq i64 %72, 0
  br i1 %.not75, label %75, label %73

73:                                               ; preds = %70
  store ptr %69, ptr %1, align 8, !tbaa !19
  %74 = load i64, ptr %71, align 8, !tbaa !42
  store i64 %74, ptr %2, align 8, !tbaa !45
  br label %77

75:                                               ; preds = %70, %67
  store ptr null, ptr %1, align 8, !tbaa !19
  store i64 0, ptr %2, align 8, !tbaa !45
  br label %77

76:                                               ; preds = %thread-pre-split, %thread-pre-split, %thread-pre-split, %thread-pre-split, %thread-pre-split, %thread-pre-split, %thread-pre-split, %thread-pre-split, %thread-pre-split, %thread-pre-split, %thread-pre-split
  br label %77

.fold.split:                                      ; preds = %thread-pre-split
  br label %77

77:                                               ; preds = %thread-pre-split, %9, %.fold.split, %3, %10, %13, %23, %26, %29, %32, %35, %38, %41, %44, %47, %50, %53, %56, %59, %62, %65, %76, %19, %16, %75, %73
  %.0 = phi i32 [ -1, %76 ], [ 0, %73 ], [ 0, %75 ], [ 0, %65 ], [ 0, %62 ], [ 0, %59 ], [ 0, %56 ], [ 0, %53 ], [ 0, %50 ], [ 0, %47 ], [ 0, %44 ], [ 0, %41 ], [ 0, %38 ], [ 0, %35 ], [ 0, %32 ], [ 0, %29 ], [ 0, %26 ], [ 0, %23 ], [ 0, %19 ], [ 0, %16 ], [ 0, %13 ], [ 0, %10 ], [ -27, %9 ], [ -27, %3 ], [ 0, %.fold.split ], [ -16, %thread-pre-split ]
  ret i32 %.0
}